target datalayout = "e-m:e-p270:32:32-p271:32:32-p272:64:64-i64:64-i128:128-f80:128-n8:16:32:64-S128"
target triple = "x86_64-pc-linux-gnu"

%struct.PauliHamil = type { ptr, ptr, i32, i32 }

@__func__.initPauliHamil = private unnamed_addr constant [15 x i8] c"initPauliHamil\00", align 1

; Function Attrs: nounwind uwtable
define void @initPauliHamil(ptr noundef byval(%struct.PauliHamil) align 8 %0, ptr noundef %1, ptr noundef %2) #0 {
  %4 = alloca ptr, align 8
  %5 = alloca ptr, align 8
  %6 = alloca i32, align 4
  %7 = alloca i32, align 4
  %8 = alloca i32, align 4
  %9 = alloca i32, align 4
  store ptr %1, ptr %4, align 8, !tbaa !23
  store ptr %2, ptr %5, align 8, !tbaa !29
  %10 = getelementptr inbounds nuw %struct.PauliHamil, ptr %0, i32 0, i32 3
  %11 = load i32, ptr %10, align 4, !tbaa !50
  %12 = getelementptr inbounds nuw %struct.PauliHamil, ptr %0, i32 0, i32 2
  %13 = load i32, ptr %12, align 8, !tbaa !38
  call void @validateHamilParams(i32 noundef %11, i32 noundef %13, ptr noundef @__func__.initPauliHamil)
  %14 = load ptr, ptr %5, align 8, !tbaa !29
  %15 = getelementptr inbounds nuw %struct.PauliHamil, ptr %0, i32 0, i32 2
  %16 = load i32, ptr %15, align 8, !tbaa !38
  %17 = getelementptr inbounds nuw %struct.PauliHamil, ptr %0, i32 0, i32 3
  %18 = load i32, ptr %17, align 4, !tbaa !50
  %19 = mul nsw i32 %16, %18
  call void @validatePauliCodes(ptr noundef %14, i32 noundef %19, ptr noundef @__func__.initPauliHamil)
  call void @llvm.lifetime.start.p0(i64 4, ptr %6) #7
  store i32 0, ptr %6, align 4, !tbaa !4
  call void @llvm.lifetime.start.p0(i64 4, ptr %7) #7
  store i32 0, ptr %7, align 4, !tbaa !4
  br label %20

20:                                               ; preds = %60, %3
  %21 = load i32, ptr %7, align 4, !tbaa !4
  %22 = getelementptr inbounds nuw %struct.PauliHamil, ptr %0, i32 0, i32 2
  %23 = load i32, ptr %22, align 8, !tbaa !38
  %24 = icmp slt i32 %21, %23
  br i1 %24, label %26, label %25

25:                                               ; preds = %20
  store i32 2, ptr %8, align 4
  call void @llvm.lifetime.end.p0(i64 4, ptr %7) #7
  br label %63

26:                                               ; preds = %20
  %27 = load ptr, ptr %4, align 8, !tbaa !23
  %28 = load i32, ptr %7, align 4, !tbaa !4
  %29 = sext i32 %28 to i64
  %30 = getelementptr inbounds double, ptr %27, i64 %29
  %31 = load double, ptr %30, align 8, !tbaa !25
  %32 = getelementptr inbounds nuw %struct.PauliHamil, ptr %0, i32 0, i32 1
  %33 = load ptr, ptr %32, align 8, !tbaa !37
  %34 = load i32, ptr %7, align 4, !tbaa !4
  %35 = sext i32 %34 to i64
  %36 = getelementptr inbounds double, ptr %33, i64 %35
  store double %31, ptr %36, align 8, !tbaa !25
  call void @llvm.lifetime.start.p0(i64 4, ptr %9) #7
  store i32 0, ptr %9, align 4, !tbaa !4
  br label %37

37:                                               ; preds = %56, %26
  %38 = load i32, ptr %9, align 4, !tbaa !4
  %39 = getelementptr inbounds nuw %struct.PauliHamil, ptr %0, i32 0, i32 3
  %40 = load i32, ptr %39, align 4, !tbaa !50
  %41 = icmp slt i32 %38, %40
  br i1 %41, label %43, label %42

42:                                               ; preds = %37
  store i32 5, ptr %8, align 4
  call void @llvm.lifetime.end.p0(i64 4, ptr %9) #7
  br label %59

43:                                               ; preds = %37
  %44 = load ptr, ptr %5, align 8, !tbaa !29
  %45 = load i32, ptr %6, align 4, !tbaa !4
  %46 = sext i32 %45 to i64
  %47 = getelementptr inbounds i32, ptr %44, i64 %46
  %48 = load i32, ptr %47, align 4, !tbaa !4
  %49 = getelementptr inbounds nuw %struct.PauliHamil, ptr %0, i32 0, i32 0
  %50 = load ptr, ptr %49, align 8, !tbaa !35
  %51 = load i32, ptr %6, align 4, !tbaa !4
  %52 = sext i32 %51 to i64
  %53 = getelementptr inbounds i32, ptr %50, i64 %52
  store i32 %48, ptr %53, align 4, !tbaa !4
  %54 = load i32, ptr %6, align 4, !tbaa !4
  %55 = add nsw i32 %54, 1
  store i32 %55, ptr %6, align 4, !tbaa !4
  br label %56

56:                                               ; preds = %43
  %57 = load i32, ptr %9, align 4, !tbaa !4
  %58 = add nsw i32 %57, 1
  store i32 %58, ptr %9, align 4, !tbaa !4
  br label %37

59:                                               ; preds = %42
  br label %60

60:                                               ; preds = %59
  %61 = load i32, ptr %7, align 4, !tbaa !4
  %62 = add nsw i32 %61, 1
  store i32 %62, ptr %7, align 4, !tbaa !4
  br label %20

63:                                               ; preds = %25
  call void @llvm.lifetime.end.p0(i64 4, ptr %6) #7
  ret void
}