; Function Attrs: nounwind uwtable
define void @initPauliHamil(ptr noundef readonly byval(%struct.PauliHamil) align 8 captures(none) %0, ptr noundef readonly captures(none) %1, ptr noundef %2) local_unnamed_addr #0 {
  %4 = getelementptr inbounds nuw i8, ptr %0, i64 20
  %5 = load i32, ptr %4, align 4, !tbaa !33
  %6 = getelementptr inbounds nuw i8, ptr %0, i64 16
  %7 = load i32, ptr %6, align 8, !tbaa !24
  tail call void @validateHamilParams(i32 noundef %5, i32 noundef %7, ptr noundef nonnull @__func__.initPauliHamil) #17
  %8 = mul nsw i32 %7, %5
  tail call void @validatePauliCodes(ptr noundef %2, i32 noundef %8, ptr noundef nonnull @__func__.initPauliHamil) #17
  %9 = icmp sgt i32 %7, 0
  br i1 %9, label %.lr.ph18, label %._crit_edge19

.lr.ph18:                                         ; preds = %3
  %10 = getelementptr inbounds nuw i8, ptr %0, i64 8
  %11 = load ptr, ptr %10, align 8, !tbaa !23
  %12 = icmp sgt i32 %5, 0
  %13 = load ptr, ptr %0, align 8
  %wide.trip.count30 = zext nneg i32 %7 to i64
  br i1 %12, label %.lr.ph.us, label %.lr.ph18.split

.lr.ph.us:                                        ; preds = %.lr.ph18, %._crit_edge.us
  %indvars.iv27 = phi i64 [ %indvars.iv.next28, %._crit_edge.us ], [ 0, %.lr.ph18 ]
  %.01215.us = phi i32 [ %18, %._crit_edge.us ], [ 0, %.lr.ph18 ]
  %14 = getelementptr inbounds nuw double, ptr %1, i64 %indvars.iv27
  %15 = load double, ptr %14, align 8, !tbaa !31
  %16 = getelementptr inbounds nuw double, ptr %11, i64 %indvars.iv27
  store double %15, ptr %16, align 8, !tbaa !31
  %17 = sext i32 %.01215.us to i64
  %18 = add i32 %5, %.01215.us
  br label %19

19:                                               ; preds = %.lr.ph.us, %19
  %indvars.iv23 = phi i64 [ %17, %.lr.ph.us ], [ %indvars.iv.next24, %19 ]
  %20 = getelementptr inbounds i32, ptr %2, i64 %indvars.iv23
  %21 = load i32, ptr %20, align 4, !tbaa !20
  %22 = getelementptr inbounds i32, ptr %13, i64 %indvars.iv23
  store i32 %21, ptr %22, align 4, !tbaa !20
  %indvars.iv.next24 = add nsw i64 %indvars.iv23, 1
  %lftr.wideiv = trunc i64 %indvars.iv.next24 to i32
  %exitcond26.not = icmp eq i32 %18, %lftr.wideiv
  br i1 %exitcond26.not, label %._crit_edge.us, label %19

._crit_edge.us:                                   ; preds = %19
  %indvars.iv.next28 = add nuw nsw i64 %indvars.iv27, 1
  %exitcond31.not = icmp eq i64 %indvars.iv.next28, %wide.trip.count30
  br i1 %exitcond31.not, label %._crit_edge19, label %.lr.ph.us

._crit_edge19:                                    ; preds = %.lr.ph18.split, %._crit_edge.us, %3
  ret void

.lr.ph18.split:                                   ; preds = %.lr.ph18, %.lr.ph18.split
  %indvars.iv = phi i64 [ %indvars.iv.next, %.lr.ph18.split ], [ 0, %.lr.ph18 ]
  %23 = getelementptr inbounds nuw double, ptr %1, i64 %indvars.iv
  %24 = load double, ptr %23, align 8, !tbaa !31
  %25 = getelementptr inbounds nuw double, ptr %11, i64 %indvars.iv
  store double %24, ptr %25, align 8, !tbaa !31
  %indvars.iv.next = add nuw nsw i64 %indvars.iv, 1
  %exitcond.not = icmp eq i64 %indvars.iv.next, %wide.trip.count30
  br i1 %exitcond.not, label %._crit_edge19, label %.lr.ph18.split
}